CCS PCM C Compiler, Version 5.015, 5967               14-Jun.-23 00:57

               Filename:   C:\Users\aquin\OneDrive\Documentos\Proyectos Pic\Módulo II\Examen - Laboratorio\Pregunta 1\Código P1\Pregunta1.lst

               ROM used:   64 words (1%)
                           Largest free fragment is 2048
               RAM used:   5 (1%) at main() level
                           6 (2%) worst case
               Stack used: 1 locations
               Stack size: 8

*
0000:  MOVLW  00
0001:  MOVWF  0A
0002:  GOTO   019
0003:  NOP
.................... #include <16f877a.h> 
.................... //////////// Standard Header file for the PIC16F877A device //////////////// 
.................... /////////////////////////////////////////////////////////////////////////// 
.................... ////        (C) Copyright 1996, 2013 Custom Computer Services          //// 
.................... //// This source code may only be used by licensed users of the CCS C  //// 
.................... //// compiler.  This source code may only be distributed to other      //// 
.................... //// licensed users of the CCS C compiler.  No other use, reproduction //// 
.................... //// or distribution is permitted without written permission.          //// 
.................... //// Derivative programs created using this software in object code    //// 
.................... //// form are not restricted in any way.                               //// 
.................... /////////////////////////////////////////////////////////////////////////// 
.................... #device PIC16F877A 
....................  
.................... #list 
....................  
.................... #fuses xt 
.................... #use delay(clock = 4M) 
0004:  MOVLW  21
0005:  MOVWF  04
0006:  BCF    03.7
0007:  MOVF   00,W
0008:  BTFSC  03.2
0009:  GOTO   018
000A:  MOVLW  01
000B:  MOVWF  78
000C:  CLRF   77
000D:  DECFSZ 77,F
000E:  GOTO   00D
000F:  DECFSZ 78,F
0010:  GOTO   00C
0011:  MOVLW  4A
0012:  MOVWF  77
0013:  DECFSZ 77,F
0014:  GOTO   013
0015:  GOTO   016
0016:  DECFSZ 00,F
0017:  GOTO   00A
0018:  RETURN
.................... #byte trisb = 0x86 
.................... #byte trisc = 0x87 
.................... #byte portb = 0x06 
.................... #byte portc = 0x07 
.................... #bit T1 = portc.0 
.................... #bit T2 = portc.1 
.................... #bit T3 = portc.2 
.................... #bit T4 = portc.3 
....................  
.................... void main() { 
0019:  MOVF   03,W
001A:  ANDLW  1F
001B:  MOVWF  03
001C:  BSF    03.5
001D:  BSF    1F.0
001E:  BSF    1F.1
001F:  BSF    1F.2
0020:  BCF    1F.3
0021:  MOVLW  07
0022:  MOVWF  1C
0023:  BCF    03.7
....................     
....................    trisb = 0b00000000; 
0024:  CLRF   06
....................    trisc = 0b00000000; 
0025:  CLRF   07
....................     
....................    portb = 0b00000000; 
0026:  BCF    03.5
0027:  CLRF   06
....................    portc = 0b00000000; 
0028:  CLRF   07
....................     
....................    while(true) { 
....................       T2 = 1; 
0029:  BSF    07.1
....................       portb = 0b11000111; 
002A:  MOVLW  C7
002B:  MOVWF  06
....................       delay_ms(10); 
002C:  MOVLW  0A
002D:  MOVWF  21
002E:  CALL   004
....................       T2 = 0; 
002F:  BCF    07.1
....................        
....................       T3 = 1; 
0030:  BSF    07.2
....................       portb = 0b10000110; 
0031:  MOVLW  86
0032:  MOVWF  06
....................       delay_ms(10); 
0033:  MOVLW  0A
0034:  MOVWF  21
0035:  CALL   004
....................       T3 = 0; 
0036:  BCF    07.2
....................        
....................       T4 = 1; 
0037:  BSF    07.3
....................       portb = 0b11000000; 
0038:  MOVLW  C0
0039:  MOVWF  06
....................       delay_ms(10); 
003A:  MOVLW  0A
003B:  MOVWF  21
003C:  CALL   004
....................       T4 = 0; 
003D:  BCF    07.3
003E:  GOTO   029
....................    } 
.................... } 
003F:  SLEEP

Configuration Fuses:
   Word  1: 3F71   XT NOWDT PUT BROWNOUT NOLVP NOCPD NOWRT NODEBUG NOPROTECT
