CCS PCM C Compiler, Version 5.015, 5967               14-Jun.-23 01:14

               Filename:   C:\Users\aquin\OneDrive\Documentos\Proyectos Pic\Módulo II\Examen - Laboratorio\Pregunta 2\Código P2\Pregunta2.lst

               ROM used:   89 words (1%)
                           Largest free fragment is 2048
               RAM used:   17 (5%) at main() level
                           18 (5%) worst case
               Stack used: 1 locations
               Stack size: 8

*
0000:  MOVLW  00
0001:  MOVWF  0A
0002:  GOTO   01B
0003:  NOP
.................... #include <16f877a.h> 
.................... //////////// Standard Header file for the PIC16F877A device //////////////// 
.................... /////////////////////////////////////////////////////////////////////////// 
.................... ////        (C) Copyright 1996, 2013 Custom Computer Services          //// 
.................... //// This source code may only be used by licensed users of the CCS C  //// 
.................... //// compiler.  This source code may only be distributed to other      //// 
.................... //// licensed users of the CCS C compiler.  No other use, reproduction //// 
.................... //// or distribution is permitted without written permission.          //// 
.................... //// Derivative programs created using this software in object code    //// 
.................... //// form are not restricted in any way.                               //// 
.................... /////////////////////////////////////////////////////////////////////////// 
.................... #device PIC16F877A 
....................  
.................... #list 
....................  
.................... #fuses xt 
.................... #use delay(clock = 4M) 
0004:  MOVLW  2D
0005:  MOVWF  04
0006:  BCF    03.7
0007:  MOVF   00,W
0008:  BTFSC  03.2
0009:  GOTO   018
000A:  MOVLW  01
000B:  MOVWF  78
000C:  CLRF   77
000D:  DECFSZ 77,F
000E:  GOTO   00D
000F:  DECFSZ 78,F
0010:  GOTO   00C
0011:  MOVLW  4A
0012:  MOVWF  77
0013:  DECFSZ 77,F
0014:  GOTO   013
0015:  GOTO   016
0016:  DECFSZ 00,F
0017:  GOTO   00A
0018:  BCF    0A.3
0019:  BCF    0A.4
001A:  GOTO   052 (RETURN)
.................... #byte trisb = 0x86 
.................... #byte trisc = 0x87 
.................... #byte portb = 0x06 
.................... #byte portc = 0x07 
.................... #bit T4 = portc.3 
....................  
.................... void main() { 
001B:  MOVF   03,W
001C:  ANDLW  1F
001D:  MOVWF  03
001E:  BSF    03.5
001F:  BSF    1F.0
0020:  BSF    1F.1
0021:  BSF    1F.2
0022:  BCF    1F.3
0023:  MOVLW  07
0024:  MOVWF  1C
0025:  BCF    03.7
....................     
....................    int datos[10] = {0b11000000, 0b11111001, 0b10100100, 0b10110000, 0b10011001, 
....................                     0b10010010, 0b10000010, 0b11111000, 0b10000000, 0b10010000}; 
0026:  MOVLW  C0
0027:  BCF    03.5
0028:  MOVWF  21
0029:  MOVLW  F9
002A:  MOVWF  22
002B:  MOVLW  A4
002C:  MOVWF  23
002D:  MOVLW  B0
002E:  MOVWF  24
002F:  MOVLW  99
0030:  MOVWF  25
0031:  MOVLW  92
0032:  MOVWF  26
0033:  MOVLW  82
0034:  MOVWF  27
0035:  MOVLW  F8
0036:  MOVWF  28
0037:  MOVLW  80
0038:  MOVWF  29
0039:  MOVLW  90
003A:  MOVWF  2A
....................    int i; 
....................     
....................    trisb = 0b00000000; 
003B:  BSF    03.5
003C:  CLRF   06
....................    trisc = 0b00000000; 
003D:  CLRF   07
....................    portb = 0b00000000; 
003E:  BCF    03.5
003F:  CLRF   06
....................    portc = 0b00000000; 
0040:  CLRF   07
....................     
....................    while(true){ 
....................       for(i = 0; i < 10; i++) { 
0041:  CLRF   2B
0042:  MOVF   2B,W
0043:  SUBLW  09
0044:  BTFSS  03.0
0045:  GOTO   057
....................          T4 = 1; 
0046:  BSF    07.3
....................          portb = datos[i]; 
0047:  MOVLW  21
0048:  ADDWF  2B,W
0049:  MOVWF  04
004A:  BCF    03.7
004B:  MOVF   00,W
004C:  MOVWF  06
....................          delay_ms(500); 
004D:  MOVLW  02
004E:  MOVWF  2C
004F:  MOVLW  FA
0050:  MOVWF  2D
0051:  GOTO   004
0052:  DECFSZ 2C,F
0053:  GOTO   04F
....................          T4 = 0; 
0054:  BCF    07.3
0055:  INCF   2B,F
0056:  GOTO   042
....................       } 
0057:  GOTO   041
....................    } 
.................... } 
0058:  SLEEP

Configuration Fuses:
   Word  1: 3F71   XT NOWDT PUT BROWNOUT NOLVP NOCPD NOWRT NODEBUG NOPROTECT
